; Function Attrs: mustprogress nofree norecurse nosync nounwind willreturn memory(argmem: read) uwtable
define i32 @uint32_hash(ptr noundef readonly captures(none) %0, i64 noundef %1) local_unnamed_addr #4 {
  %3 = load i32, ptr %0, align 4
  %4 = add i32 %3, -1636608428
  %5 = xor i32 %4, 711645284
  %6 = add i32 %5, -1455628627
  %7 = xor i32 %6, -1636608428
  %8 = tail call noundef i32 @llvm.fshl.i32(i32 %6, i32 %6, i32 25)
  %9 = sub i32 %7, %8
  %10 = xor i32 %9, 711645284
  %11 = tail call noundef i32 @llvm.fshl.i32(i32 %9, i32 %9, i32 16)
  %12 = sub i32 %10, %11
  %13 = xor i32 %12, %6
  %14 = tail call noundef i32 @llvm.fshl.i32(i32 %12, i32 %12, i32 4)
  %15 = sub i32 %13, %14
  %16 = xor i32 %15, %9
  %17 = tail call noundef i32 @llvm.fshl.i32(i32 %15, i32 %15, i32 14)
  %18 = sub i32 %16, %17
  %19 = xor i32 %18, %12
  %20 = tail call noundef i32 @llvm.fshl.i32(i32 %18, i32 %18, i32 24)
  %21 = sub i32 %19, %20
  ret i32 %21
}